; Function Attrs: mustprogress nounwind uwtable
define dso_local i64 @_ZN5clang6Parser19ParseCXXBoolLiteralEv(ptr noundef nonnull align 8 dereferenceable(2936) initializes((40, 44)) %0) local_unnamed_addr #0 align 2 {
  %2 = getelementptr inbounds nuw i8, ptr %0, i64 16
  %3 = getelementptr inbounds nuw i8, ptr %0, i64 32
  %4 = load i16, ptr %3, align 8
  %5 = getelementptr inbounds nuw i8, ptr %0, i64 88
  %6 = load ptr, ptr %5, align 8
  %7 = load i32, ptr %2, align 8
  %8 = getelementptr inbounds nuw i8, ptr %0, i64 40
  store i32 %7, ptr %8, align 8
  %9 = getelementptr inbounds nuw i8, ptr %0, i64 8
  %10 = load ptr, ptr %9, align 8
  tail call void @_ZN5clang12Preprocessor3LexERNS_5TokenE(ptr noundef nonnull align 8 dereferenceable(3288) %10, ptr noundef nonnull align 8 dereferenceable(20) %2) #17
  %.sroa.01.0.copyload.i = load i32, ptr %8, align 8
  %11 = tail call i64 @_ZN5clang4Sema19ActOnCXXBoolLiteralENS_14SourceLocationENS_3tok9TokenKindE(ptr noundef nonnull align 8 dereferenceable(17560) %6, i32 %.sroa.01.0.copyload.i, i16 noundef zeroext %4) #17
  ret i64 %11
}